target datalayout = "e-m:e-p270:32:32-p271:32:32-p272:64:64-i64:64-i128:128-f80:128-n8:16:32:64-S128"
target triple = "x86_64-pc-linux-gnu"

%class.CompressedLineNumberReadStream = type { %class.CompressedReadStream.base, i32, i32, [4 x i8] }
%class.CompressedReadStream.base = type { %class.CompressedStream.base }
%class.CompressedStream.base = type <{ ptr, i32 }>
%class.CompressedStream = type <{ ptr, i32, [4 x i8] }>

; Function Attrs: mustprogress nounwind uwtable
define linkonce_odr hidden noundef zeroext i8 @_ZN20CompressedReadStream4readEv(ptr noundef nonnull align 8 dereferenceable(12) %0) #1 comdat align 2 {
  %2 = alloca ptr, align 8
  store ptr %0, ptr %2, align 8
  %3 = load ptr, ptr %2, align 8
  %4 = getelementptr inbounds %class.CompressedStream, ptr %3, i32 0, i32 0
  %5 = load ptr, ptr %4, align 8
  %6 = getelementptr inbounds %class.CompressedStream, ptr %3, i32 0, i32 1
  %7 = load i32, ptr %6, align 8
  %8 = add nsw i32 %7, 1
  store i32 %8, ptr %6, align 8
  %9 = sext i32 %7 to i64
  %10 = getelementptr inbounds i8, ptr %5, i64 %9
  %11 = load i8, ptr %10, align 1
  ret i8 %11
}

; Function Attrs: mustprogress nounwind uwtable
define linkonce_odr hidden noundef signext i8 @_ZN20CompressedReadStream9read_byteEv(ptr noundef nonnull align 8 dereferenceable(12) %0) #1 comdat align 2 {
  %2 = alloca ptr, align 8
  store ptr %0, ptr %2, align 8
  %3 = load ptr, ptr %2, align 8
  %4 = call noundef zeroext i8 @_ZN20CompressedReadStream4readEv(ptr noundef nonnull align 8 dereferenceable(12) %3)
  ret i8 %4
}

; Function Attrs: mustprogress nounwind uwtable
define hidden noundef zeroext i1 @_ZN30CompressedLineNumberReadStream9read_pairEv(ptr noundef nonnull align 8 dereferenceable(20) %0) #1 align 2 {
  %2 = alloca i1, align 1
  %3 = alloca ptr, align 8
  %4 = alloca i8, align 1
  store ptr %0, ptr %3, align 8
  %5 = load ptr, ptr %3, align 8
  %6 = call noundef signext i8 @_ZN20CompressedReadStream9read_byteEv(ptr noundef nonnull align 8 dereferenceable(12) %5)
  store i8 %6, ptr %4, align 1
  %7 = load i8, ptr %4, align 1
  %8 = zext i8 %7 to i32
  %9 = icmp eq i32 %8, 0
  br i1 %9, label %10, label %11

10:                                               ; preds = %1
  store i1 false, ptr %2, align 1
  br label %38

11:                                               ; preds = %1
  %12 = load i8, ptr %4, align 1
  %13 = zext i8 %12 to i32
  %14 = icmp eq i32 %13, 255
  br i1 %14, label %15, label %24

15:                                               ; preds = %11
  %16 = call noundef i32 @_ZN20CompressedReadStream15read_signed_intEv(ptr noundef nonnull align 8 dereferenceable(12) %5)
  %17 = getelementptr inbounds %class.CompressedLineNumberReadStream, ptr %5, i32 0, i32 1
  %18 = load i32, ptr %17, align 4
  %19 = add nsw i32 %18, %16
  store i32 %19, ptr %17, align 4
  %20 = call noundef i32 @_ZN20CompressedReadStream15read_signed_intEv(ptr noundef nonnull align 8 dereferenceable(12) %5)
  %21 = getelementptr inbounds %class.CompressedLineNumberReadStream, ptr %5, i32 0, i32 2
  %22 = load i32, ptr %21, align 8
  %23 = add nsw i32 %22, %20
  store i32 %23, ptr %21, align 8
  br label %37

24:                                               ; preds = %11
  %25 = load i8, ptr %4, align 1
  %26 = zext i8 %25 to i32
  %27 = ashr i32 %26, 3
  %28 = getelementptr inbounds %class.CompressedLineNumberReadStream, ptr %5, i32 0, i32 1
  %29 = load i32, ptr %28, align 4
  %30 = add nsw i32 %29, %27
  store i32 %30, ptr %28, align 4
  %31 = load i8, ptr %4, align 1
  %32 = zext i8 %31 to i32
  %33 = and i32 %32, 7
  %34 = getelementptr inbounds %class.CompressedLineNumberReadStream, ptr %5, i32 0, i32 2
  %35 = load i32, ptr %34, align 8
  %36 = add nsw i32 %35, %33
  store i32 %36, ptr %34, align 8
  br label %37

37:                                               ; preds = %24, %15
  store i1 true, ptr %2, align 1
  br label %38

38:                                               ; preds = %37, %10
  %39 = load i1, ptr %2, align 1
  ret i1 %39
}