; Function Attrs: mustprogress nounwind uwtable
define hidden noundef zeroext i1 @_ZN30CompressedLineNumberReadStream9read_pairEv(ptr noundef nonnull align 8 dereferenceable(20) %0) local_unnamed_addr #0 align 2 {
  %2 = load ptr, ptr %0, align 8
  %3 = getelementptr inbounds i8, ptr %0, i64 8
  %4 = load i32, ptr %3, align 8
  %5 = add nsw i32 %4, 1
  store i32 %5, ptr %3, align 8
  %6 = sext i32 %4 to i64
  %7 = getelementptr inbounds i8, ptr %2, i64 %6
  %8 = load i8, ptr %7, align 1
  %9 = zext i8 %8 to i32
  %10 = icmp ne i8 %8, 0
  br i1 %10, label %11, label %27

11:                                               ; preds = %1
  %12 = icmp eq i8 %8, -1
  %13 = getelementptr inbounds i8, ptr %0, i64 12
  %14 = getelementptr inbounds i8, ptr %0, i64 16
  br i1 %12, label %15, label %20

15:                                               ; preds = %11
  %16 = tail call noundef i32 @_ZN20CompressedReadStream15read_signed_intEv(ptr noundef nonnull align 8 dereferenceable(12) %0) #23
  %17 = load i32, ptr %13, align 4
  %18 = add nsw i32 %17, %16
  store i32 %18, ptr %13, align 4
  %19 = tail call noundef i32 @_ZN20CompressedReadStream15read_signed_intEv(ptr noundef nonnull align 8 dereferenceable(12) %0) #23
  br label %.sink.split

20:                                               ; preds = %11
  %21 = lshr i32 %9, 3
  %22 = load i32, ptr %13, align 4
  %23 = add nsw i32 %22, %21
  store i32 %23, ptr %13, align 4
  %24 = and i32 %9, 7
  br label %.sink.split

.sink.split:                                      ; preds = %20, %15
  %.sink7 = phi i32 [ %19, %15 ], [ %24, %20 ]
  %25 = load i32, ptr %14, align 8
  %26 = add nsw i32 %25, %.sink7
  store i32 %26, ptr %14, align 8
  br label %27

27:                                               ; preds = %.sink.split, %1
  ret i1 %10
}